; Function Attrs: nounwind uwtable
define noalias noundef ptr @Gia_SimCollectBest(ptr noundef readonly captures(none) %0) local_unnamed_addr #4 {
  %2 = getelementptr inbounds nuw i8, ptr %0, i64 4
  %3 = load i32, ptr %2, align 4, !tbaa !315
  %4 = icmp eq i32 %3, 0
  br i1 %4, label %.critedge, label %5

5:                                                ; preds = %1
  %6 = getelementptr i8, ptr %0, i64 8
  %7 = load ptr, ptr %6, align 8, !tbaa !314
  %8 = load float, ptr %7, align 4, !tbaa !317
  %9 = icmp sgt i32 %3, 1
  br i1 %9, label %.lr.ph.preheader.i, label %Vec_FltFindMax.exit

.lr.ph.preheader.i:                               ; preds = %5
  %wide.trip.count.i = zext nneg i32 %3 to i64
  br label %.lr.ph.i

.lr.ph.i:                                         ; preds = %.lr.ph.i, %.lr.ph.preheader.i
  %indvars.iv.i = phi i64 [ 1, %.lr.ph.preheader.i ], [ %indvars.iv.next.i, %.lr.ph.i ]
  %.015.i = phi float [ %8, %.lr.ph.preheader.i ], [ %.1.i, %.lr.ph.i ]
  %10 = getelementptr inbounds nuw float, ptr %7, i64 %indvars.iv.i
  %11 = load float, ptr %10, align 4, !tbaa !317
  %12 = fcmp olt float %.015.i, %11
  %.1.i = select i1 %12, float %11, float %.015.i
  %indvars.iv.next.i = add nuw nsw i64 %indvars.iv.i, 1
  %exitcond.not.i = icmp eq i64 %indvars.iv.next.i, %wide.trip.count.i
  br i1 %exitcond.not.i, label %Vec_FltFindMax.exit, label %.lr.ph.i, !llvm.loop !320

Vec_FltFindMax.exit:                              ; preds = %.lr.ph.i, %5
  %.012.i = phi float [ %8, %5 ], [ %.1.i, %.lr.ph.i ]
  %13 = fcmp ugt float %.012.i, 0.000000e+00
  br i1 %13, label %14, label %.critedge

14:                                               ; preds = %Vec_FltFindMax.exit
  %15 = tail call noalias dereferenceable_or_null(16) ptr @malloc(i64 noundef 16) #31
  %16 = getelementptr inbounds nuw i8, ptr %15, i64 4
  store i32 0, ptr %16, align 4, !tbaa !28
  store i32 100, ptr %15, align 8, !tbaa !80
  %17 = tail call noalias dereferenceable_or_null(400) ptr @malloc(i64 noundef 400) #31
  %18 = getelementptr inbounds nuw i8, ptr %15, i64 8
  store ptr %17, ptr %18, align 8, !tbaa !29
  %19 = icmp sgt i32 %3, 0
  br i1 %19, label %.lr.ph, label %.critedge

.lr.ph:                                           ; preds = %14, %47
  %.val22 = phi i32 [ %.val, %47 ], [ %3, %14 ]
  %20 = phi ptr [ %.pre.i20, %47 ], [ %17, %14 ]
  %indvars.iv = phi i64 [ %indvars.iv.next, %47 ], [ 0, %14 ]
  %.val14 = load ptr, ptr %6, align 8, !tbaa !314
  %21 = getelementptr inbounds nuw float, ptr %.val14, i64 %indvars.iv
  %22 = load float, ptr %21, align 4, !tbaa !317
  %23 = fcmp oeq float %22, %.012.i
  br i1 %23, label %24, label %47

24:                                               ; preds = %.lr.ph
  %25 = load i32, ptr %16, align 4, !tbaa !28
  %26 = load i32, ptr %15, align 8, !tbaa !80
  %27 = icmp eq i32 %25, %26
  br i1 %27, label %28, label %Vec_IntPush.exit

28:                                               ; preds = %24
  %29 = icmp slt i32 %25, 16
  br i1 %29, label %30, label %35

30:                                               ; preds = %28
  %.not9.i.i = icmp eq ptr %20, null
  br i1 %.not9.i.i, label %33, label %31

31:                                               ; preds = %30
  %32 = tail call dereferenceable_or_null(64) ptr @realloc(ptr noundef nonnull %20, i64 noundef 64) #34
  br label %Vec_IntPush.exit.sink.split

33:                                               ; preds = %30
  %34 = tail call noalias dereferenceable_or_null(64) ptr @malloc(i64 noundef 64) #31
  br label %Vec_IntPush.exit.sink.split

35:                                               ; preds = %28
  %36 = shl nuw nsw i32 %25, 1
  %.not9.i9.i = icmp eq ptr %20, null
  %37 = zext nneg i32 %36 to i64
  %38 = shl nuw nsw i64 %37, 2
  br i1 %.not9.i9.i, label %41, label %39

39:                                               ; preds = %35
  %40 = tail call ptr @realloc(ptr noundef nonnull %20, i64 noundef %38) #34
  br label %Vec_IntPush.exit.sink.split

41:                                               ; preds = %35
  %42 = tail call noalias ptr @malloc(i64 noundef %38) #31
  br label %Vec_IntPush.exit.sink.split

Vec_IntPush.exit.sink.split:                      ; preds = %39, %41, %31, %33
  %.sink24 = phi ptr [ %32, %31 ], [ %34, %33 ], [ %40, %39 ], [ %42, %41 ]
  %.sink = phi i32 [ 16, %31 ], [ 16, %33 ], [ %36, %39 ], [ %36, %41 ]
  store ptr %.sink24, ptr %18, align 8, !tbaa !29
  store i32 %.sink, ptr %15, align 8, !tbaa !80
  br label %Vec_IntPush.exit

Vec_IntPush.exit:                                 ; preds = %Vec_IntPush.exit.sink.split, %24
  %.pre.i21 = phi ptr [ %20, %24 ], [ %.sink24, %Vec_IntPush.exit.sink.split ]
  %43 = add nsw i32 %25, 1
  store i32 %43, ptr %16, align 4, !tbaa !28
  %44 = sext i32 %25 to i64
  %45 = getelementptr inbounds i32, ptr %.pre.i21, i64 %44
  %46 = trunc nuw nsw i64 %indvars.iv to i32
  store i32 %46, ptr %45, align 4, !tbaa !30
  %.val.pre = load i32, ptr %2, align 4, !tbaa !315
  br label %47

47:                                               ; preds = %.lr.ph, %Vec_IntPush.exit
  %.val = phi i32 [ %.val22, %.lr.ph ], [ %.val.pre, %Vec_IntPush.exit ]
  %.pre.i20 = phi ptr [ %20, %.lr.ph ], [ %.pre.i21, %Vec_IntPush.exit ]
  %indvars.iv.next = add nuw nsw i64 %indvars.iv, 1
  %48 = sext i32 %.val to i64
  %49 = icmp slt i64 %indvars.iv.next, %48
  br i1 %49, label %.lr.ph, label %.critedge, !llvm.loop !321

.critedge:                                        ; preds = %47, %14, %1, %Vec_FltFindMax.exit
  %.0 = phi ptr [ null, %Vec_FltFindMax.exit ], [ null, %1 ], [ %15, %14 ], [ %15, %47 ]
  ret ptr %.0
}